; Function Attrs: nounwind uwtable
define hidden double @BrotliHistogramBitCostDistanceLiteral(ptr noundef readonly captures(none) %histogram, ptr noundef readonly captures(none) %candidate, ptr noundef %tmp) local_unnamed_addr #0 {
entry:
  %total_count_ = getelementptr inbounds nuw i8, ptr %histogram, i64 1024
  %0 = load i64, ptr %total_count_, align 8
  %cmp = icmp eq i64 %0, 0
  br i1 %cmp, label %return, label %if.else

if.else:                                          ; preds = %entry
  tail call void @llvm.memcpy.p0.p0.i64(ptr noundef nonnull align 8 dereferenceable(1040) %tmp, ptr noundef nonnull align 8 dereferenceable(1040) %histogram, i64 1040, i1 false)
  %total_count_.i = getelementptr inbounds nuw i8, ptr %candidate, i64 1024
  %1 = load i64, ptr %total_count_.i, align 8
  %total_count_1.i = getelementptr inbounds nuw i8, ptr %tmp, i64 1024
  %2 = load i64, ptr %total_count_1.i, align 8
  %add.i = add i64 %2, %1
  store i64 %add.i, ptr %total_count_1.i, align 8
  br label %for.body.i

for.body.i:                                       ; preds = %if.else, %for.body.i
  %i.i.010 = phi i64 [ 0, %if.else ], [ %inc.i, %for.body.i ]
  %arrayidx.i = getelementptr inbounds nuw [256 x i32], ptr %candidate, i64 0, i64 %i.i.010
  %3 = load i32, ptr %arrayidx.i, align 4
  %arrayidx3.i = getelementptr inbounds nuw [256 x i32], ptr %tmp, i64 0, i64 %i.i.010
  %4 = load i32, ptr %arrayidx3.i, align 4
  %add4.i = add i32 %4, %3
  store i32 %add4.i, ptr %arrayidx3.i, align 4
  %inc.i = add nuw nsw i64 %i.i.010, 1
  %exitcond.not = icmp eq i64 %inc.i, 256
  br i1 %exitcond.not, label %HistogramAddHistogramLiteral.exit, label %for.body.i, !llvm.loop !4

HistogramAddHistogramLiteral.exit:                ; preds = %for.body.i
  %call = tail call double @BrotliPopulationCostLiteral(ptr noundef nonnull %tmp) #7
  %bit_cost_ = getelementptr inbounds nuw i8, ptr %candidate, i64 1032
  %5 = load double, ptr %bit_cost_, align 8
  %sub = fsub double %call, %5
  br label %return

return:                                           ; preds = %entry, %HistogramAddHistogramLiteral.exit
  %retval.0 = phi double [ %sub, %HistogramAddHistogramLiteral.exit ], [ 0.000000e+00, %entry ]
  ret double %retval.0
}